target datalayout = "e-m:e-p270:32:32-p271:32:32-p272:64:64-i64:64-i128:128-f80:128-n8:16:32:64-S128"
target triple = "x86_64-pc-linux-gnu"

; Function Attrs: nounwind uwtable
define void @QuESTAssert(i32 noundef %0, i32 noundef %1, ptr noundef %2) #0 {
  %4 = alloca i32, align 4
  %5 = alloca i32, align 4
  %6 = alloca ptr, align 8
  store i32 %0, ptr %4, align 4, !tbaa !9
  store i32 %1, ptr %5, align 4, !tbaa !9
  store ptr %2, ptr %6, align 8, !tbaa !4
  %7 = load i32, ptr %4, align 4, !tbaa !9
  %8 = icmp ne i32 %7, 0
  br i1 %8, label %15, label %9

9:                                                ; preds = %3
  %10 = load i32, ptr %5, align 4, !tbaa !9
  %11 = zext i32 %10 to i64
  %12 = getelementptr inbounds nuw [92 x ptr], ptr @errorMessages, i64 0, i64 %11
  %13 = load ptr, ptr %12, align 8, !tbaa !4
  %14 = load ptr, ptr %6, align 8, !tbaa !4
  call void @invalidQuESTInputError(ptr noundef %13, ptr noundef %14)
  br label %15

15:                                               ; preds = %9, %3
  ret void
}

; Function Attrs: nounwind uwtable
define void @validateProb(double noundef %0, ptr noundef %1) #0 {
  %3 = alloca double, align 8
  %4 = alloca ptr, align 8
  store double %0, ptr %3, align 8, !tbaa !15
  store ptr %1, ptr %4, align 8, !tbaa !4
  %5 = load double, ptr %3, align 8, !tbaa !15
  %6 = fcmp oge double %5, 0.000000e+00
  br i1 %6, label %7, label %10

7:                                                ; preds = %2
  %8 = load double, ptr %3, align 8, !tbaa !15
  %9 = fcmp ole double %8, 1.000000e+00
  br label %10

10:                                               ; preds = %7, %2
  %11 = phi i1 [ false, %2 ], [ %9, %7 ]
  %12 = zext i1 %11 to i32
  %13 = load ptr, ptr %4, align 8, !tbaa !4
  call void @QuESTAssert(i32 noundef %12, i32 noundef 36, ptr noundef %13)
  ret void
}

; Function Attrs: nounwind uwtable
define void @validateTwoQubitDepolProb(double noundef %0, ptr noundef %1) #0 {
  %3 = alloca double, align 8
  %4 = alloca ptr, align 8
  store double %0, ptr %3, align 8, !tbaa !15
  store ptr %1, ptr %4, align 8, !tbaa !4
  %5 = load double, ptr %3, align 8, !tbaa !15
  %6 = load ptr, ptr %4, align 8, !tbaa !4
  call void @validateProb(double noundef %5, ptr noundef %6)
  %7 = load double, ptr %3, align 8, !tbaa !15
  %8 = fcmp ole double %7, 9.375000e-01
  %9 = zext i1 %8 to i32
  %10 = load ptr, ptr %4, align 8, !tbaa !4
  call void @QuESTAssert(i32 noundef %9, i32 noundef 41, ptr noundef %10)
  ret void
}