; Function Attrs: nounwind uwtable
define void @validateTwoQubitDepolProb(double noundef %0, ptr noundef %1) local_unnamed_addr #3 {
  %3 = fcmp ult double %0, 0.000000e+00
  %4 = fcmp ugt double %0, 1.000000e+00
  %.not4.i = or i1 %3, %4
  br i1 %.not4.i, label %5, label %validateProb.exit

5:                                                ; preds = %2
  tail call void @invalidQuESTInputError(ptr noundef nonnull @.str.38, ptr noundef %1)
  br label %validateProb.exit

validateProb.exit:                                ; preds = %2, %5
  %6 = fcmp ugt double %0, 9.375000e-01
  br i1 %6, label %7, label %QuESTAssert.exit

7:                                                ; preds = %validateProb.exit
  tail call void @invalidQuESTInputError(ptr noundef nonnull @.str.43, ptr noundef %1)
  br label %QuESTAssert.exit

QuESTAssert.exit:                                 ; preds = %validateProb.exit, %7
  ret void
}